; Function Attrs: mustprogress nofree norecurse nosync nounwind memory(argmem: readwrite) uwtable
define hidden void @_ZN2cv10ExrDecoder11ChromaToBGREPfiii(ptr nocapture noundef nonnull readonly align 8 dereferenceable(376) %0, ptr nocapture noundef %1, i32 noundef %2, i32 noundef %3, i32 noundef %4) local_unnamed_addr #13 align 2 {
  %6 = icmp sgt i32 %2, 0
  br i1 %6, label %.preheader.lr.ph, label %._crit_edge90

.preheader.lr.ph:                                 ; preds = %5
  %7 = getelementptr inbounds i8, ptr %0, i64 8
  %8 = getelementptr inbounds i8, ptr %0, i64 280
  %9 = getelementptr inbounds i8, ptr %0, i64 356
  %10 = getelementptr inbounds i8, ptr %0, i64 340
  %11 = getelementptr inbounds i8, ptr %0, i64 348
  %12 = load i32, ptr %7, align 8
  %13 = icmp sgt i32 %12, 0
  br i1 %13, label %.preheader.preheader, label %._crit_edge90

.preheader.preheader:                             ; preds = %.preheader.lr.ph
  %14 = sext i32 %3 to i64
  %15 = sext i32 %4 to i64
  %wide.trip.count = zext nneg i32 %2 to i64
  br label %.preheader

.preheader:                                       ; preds = %.preheader.preheader, %._crit_edge
  %16 = phi i32 [ %12, %.preheader.preheader ], [ %78, %._crit_edge ]
  %indvars.iv93 = phi i64 [ 0, %.preheader.preheader ], [ %indvars.iv.next94, %._crit_edge ]
  %17 = icmp sgt i32 %16, 0
  br i1 %17, label %.lr.ph, label %._crit_edge

.lr.ph:                                           ; preds = %.preheader
  %18 = mul nsw i64 %indvars.iv93, %15
  %invariant.gep = getelementptr i32, ptr %1, i64 %18
  %invariant.gep96 = getelementptr float, ptr %1, i64 %18
  %invariant.gep98 = getelementptr i32, ptr %1, i64 %18
  %invariant.gep100 = getelementptr float, ptr %1, i64 %18
  br label %19

19:                                               ; preds = %.lr.ph, %74
  %indvars.iv = phi i64 [ 0, %.lr.ph ], [ %indvars.iv.next, %74 ]
  %20 = load i32, ptr %8, align 8
  %21 = icmp eq i32 %20, 2
  %22 = mul nsw i64 %indvars.iv, %14
  br i1 %21, label %23, label %29

23:                                               ; preds = %19
  %gep97 = getelementptr float, ptr %invariant.gep96, i64 %22
  %24 = load float, ptr %gep97, align 4
  %25 = fpext float %24 to double
  %26 = getelementptr i8, ptr %gep97, i64 4
  %27 = load <2 x float>, ptr %26, align 4
  %28 = fpext <2 x float> %27 to <2 x double>
  br label %35

29:                                               ; preds = %19
  %gep = getelementptr i32, ptr %invariant.gep, i64 %22
  %30 = load i32, ptr %gep, align 4
  %31 = uitofp i32 %30 to double
  %32 = getelementptr i8, ptr %gep, i64 4
  %33 = load <2 x i32>, ptr %32, align 4
  %34 = uitofp <2 x i32> %33 to <2 x double>
  br label %35

35:                                               ; preds = %29, %23
  %.086 = phi double [ %25, %23 ], [ %31, %29 ]
  %36 = phi <2 x double> [ %28, %23 ], [ %34, %29 ]
  %37 = extractelement <2 x double> %36, i64 1
  %38 = fadd double %37, 1.000000e+00
  %39 = extractelement <2 x double> %36, i64 0
  %40 = fmul double %39, %38
  %41 = fadd double %.086, 1.000000e+00
  %42 = fmul double %41, %39
  %43 = load float, ptr %9, align 4
  %44 = fpext float %43 to double
  %45 = fneg double %42
  %46 = tail call double @llvm.fmuladd.f64(double %45, double %44, double %39)
  %47 = load float, ptr %10, align 4
  %48 = fpext float %47 to double
  %49 = fneg double %40
  %50 = tail call double @llvm.fmuladd.f64(double %49, double %48, double %46)
  %51 = load float, ptr %11, align 4
  %52 = fpext float %51 to double
  %53 = fdiv double %50, %52
  br i1 %21, label %54, label %61

54:                                               ; preds = %35
  %55 = insertelement <2 x double> poison, double %42, i64 0
  %56 = insertelement <2 x double> %55, double %53, i64 1
  %57 = fptrunc <2 x double> %56 to <2 x float>
  %58 = mul nsw i64 %indvars.iv, %14
  %gep101 = getelementptr float, ptr %invariant.gep100, i64 %58
  store <2 x float> %57, ptr %gep101, align 4
  %59 = fptrunc double %40 to float
  %60 = getelementptr i8, ptr %gep101, i64 8
  store float %59, ptr %60, align 4
  br label %74

61:                                               ; preds = %35
  %62 = insertelement <2 x double> poison, double %42, i64 0
  %63 = tail call noundef i32 @llvm.x86.sse2.cvtsd2si(<2 x double> %62)
  %64 = tail call i32 @llvm.smax.i32(i32 %63, i32 0)
  %65 = mul nsw i64 %indvars.iv, %14
  %gep99 = getelementptr i32, ptr %invariant.gep98, i64 %65
  store i32 %64, ptr %gep99, align 4
  %66 = insertelement <2 x double> poison, double %53, i64 0
  %67 = tail call noundef i32 @llvm.x86.sse2.cvtsd2si(<2 x double> %66)
  %68 = tail call i32 @llvm.smax.i32(i32 %67, i32 0)
  %69 = getelementptr i8, ptr %gep99, i64 4
  store i32 %68, ptr %69, align 4
  %70 = insertelement <2 x double> poison, double %40, i64 0
  %71 = tail call noundef i32 @llvm.x86.sse2.cvtsd2si(<2 x double> %70)
  %72 = tail call i32 @llvm.smax.i32(i32 %71, i32 0)
  %73 = getelementptr i8, ptr %gep99, i64 8
  store i32 %72, ptr %73, align 4
  br label %74

74:                                               ; preds = %54, %61
  %indvars.iv.next = add nuw nsw i64 %indvars.iv, 1
  %75 = load i32, ptr %7, align 8
  %76 = sext i32 %75 to i64
  %77 = icmp slt i64 %indvars.iv.next, %76
  br i1 %77, label %19, label %._crit_edge, !llvm.loop !22

._crit_edge:                                      ; preds = %74, %.preheader
  %78 = phi i32 [ %16, %.preheader ], [ %75, %74 ]
  %indvars.iv.next94 = add nuw nsw i64 %indvars.iv93, 1
  %exitcond.not = icmp eq i64 %indvars.iv.next94, %wide.trip.count
  br i1 %exitcond.not, label %._crit_edge90, label %.preheader, !llvm.loop !23

._crit_edge90:                                    ; preds = %._crit_edge, %.preheader.lr.ph, %5
  ret void
}